Certificate:
    Data:
        Version: 3 (0x2)
        Serial Number:
            c9:2c:b9:89:24:ce:be:65:9d:c7:99:cb:83:8e:68:c8
        Signature Algorithm: sha256WithRSAEncryption
        Issuer: CN=srx-lab4
        Validity
            Not Before: Apr 27 10:23:22 2026 GMT
            Not After : Jul 30 10:23:22 2028 GMT
        Subject: CN=far
        Subject Public Key Info:
            Public Key Algorithm: rsaEncryption
                Public-Key: (2048 bit)
                Modulus:
                    00:b7:de:1c:75:89:b3:fc:c8:26:da:db:e7:a6:6a:
                    21:95:53:47:91:bf:eb:ab:9c:d7:31:90:b4:9e:dd:
                    4d:c0:20:d7:92:7c:a8:e1:28:eb:f0:56:6f:76:36:
                    e2:77:35:88:ae:32:3b:ee:a2:a1:b6:ab:4e:a3:3d:
                    6a:ef:3a:33:2d:ca:08:77:49:52:0e:ba:d9:74:a4:
                    d6:c8:89:60:a8:61:64:67:aa:34:5f:9b:67:eb:4e:
                    a5:cd:5c:4b:39:01:6b:9c:ce:72:cd:71:d2:2d:15:
                    ac:66:26:5d:de:e7:5b:bc:5d:d2:6f:54:79:3d:ca:
                    97:92:e2:d4:bf:d8:a0:08:a9:c5:38:eb:e3:a2:7a:
                    be:fa:a6:47:67:23:25:39:75:82:86:ff:ab:74:8b:
                    cc:47:9e:5e:9b:86:1b:b9:c0:2f:d9:3e:0f:30:cb:
                    f5:25:b1:f0:f5:71:c2:3a:a9:af:d7:82:46:66:34:
                    ba:41:1f:7b:2f:e8:f1:7b:c9:8c:79:71:62:b6:9f:
                    67:ae:79:03:e5:99:71:b8:21:b0:c2:bd:4b:92:21:
                    67:35:8d:56:06:f8:f3:54:06:a7:be:c7:29:13:66:
                    c2:82:b9:7f:ec:12:63:24:55:a2:a2:8d:31:0a:a7:
                    c6:54:91:58:ca:d8:17:c7:0b:35:77:a6:8b:75:47:
                    dc:5d
                Exponent: 65537 (0x10001)
        X509v3 extensions:
            X509v3 Basic Constraints: 
                CA:FALSE
            X509v3 Subject Key Identifier: 
                1F:61:28:B3:A6:2B:FC:60:8E:9E:FF:D4:A6:17:8C:BE:7A:34:C1:AE
            X509v3 Authority Key Identifier: 
                keyid:1C:23:86:B8:AF:78:5F:3F:B3:CA:8B:08:01:39:EC:E5:20:55:F1:8E
                DirName:/CN=srx-lab4
                serial:70:26:7F:57:A4:86:16:03:FC:AA:BC:9D:97:69:97:C6:CC:C0:20:D9
            X509v3 Extended Key Usage: 
                TLS Web Client Authentication
            X509v3 Key Usage: 
                Digital Signature
    Signature Algorithm: sha256WithRSAEncryption
    Signature Value:
        81:78:ed:bb:7c:12:1b:65:3e:68:f8:4a:f8:f2:38:d7:37:71:
        68:ad:06:ad:b4:64:c6:18:c2:dc:9b:ec:e6:2e:c9:2e:0a:c0:
        d6:c3:31:86:75:fe:00:85:3d:aa:7f:74:2b:c1:86:bd:17:a6:
        f5:1a:59:02:92:12:45:80:8d:8e:5d:92:69:b2:a1:3e:61:cf:
        b9:11:0e:3c:92:79:a9:79:e9:0e:28:dc:c9:0b:7e:14:10:34:
        4f:c2:db:79:c0:2c:c6:3a:9e:33:f3:ed:a3:55:88:41:bb:3e:
        af:67:b8:89:c6:03:89:50:d2:55:c9:c4:fb:ca:be:f8:d5:0f:
        3b:b6:47:6e:c4:d5:9c:d3:52:d9:8e:34:94:5e:8c:04:06:74:
        12:4e:14:9f:18:f4:b2:ed:d5:9c:24:f5:04:cf:ad:a5:c0:d3:
        8e:38:5d:37:65:de:a1:42:55:a1:50:d3:9e:33:66:55:66:10:
        fa:e0:15:fb:fd:7f:6f:f6:5a:6f:4c:64:e9:d8:1f:e2:58:fb:
        b0:56:78:0d:1a:29:4b:66:8e:d2:a1:59:b4:ae:f3:09:98:08:
        50:d2:7a:03:5c:39:07:ca:93:2a:00:f8:47:7d:41:48:6a:c7:
        49:c6:1f:5e:35:3b:1a:b8:6a:bb:62:78:c4:b4:5f:e0:77:e6:
        9e:7f:25:f5
-----BEGIN CERTIFICATE-----
MIIDTDCCAjSgAwIBAgIRAMksuYkkzr5lnceZy4OOaMgwDQYJKoZIhvcNAQELBQAw
EzERMA8GA1UEAwwIc3J4LWxhYjQwHhcNMjYwNDI3MTAyMzIyWhcNMjgwNzMwMTAy
MzIyWjAOMQwwCgYDVQQDDANmYXIwggEiMA0GCSqGSIb3DQEBAQUAA4IBDwAwggEK
AoIBAQC33hx1ibP8yCba2+emaiGVU0eRv+urnNcxkLSe3U3AINeSfKjhKOvwVm92
NuJ3NYiuMjvuoqG2q06jPWrvOjMtygh3SVIOutl0pNbIiWCoYWRnqjRfm2frTqXN
XEs5AWucznLNcdItFaxmJl3e51u8XdJvVHk9ypeS4tS/2KAIqcU46+Oier76pkdn
IyU5dYKG/6t0i8xHnl6bhhu5wC/ZPg8wy/UlsfD1ccI6qa/XgkZmNLpBH3sv6PF7
yYx5cWK2n2eueQPlmXG4IbDCvUuSIWc1jVYG+PNUBqe+xykTZsKCuX/sEmMkVaKi
jTEKp8ZUkVjK2BfHCzV3pot1R9xdAgMBAAGjgZ8wgZwwCQYDVR0TBAIwADAdBgNV
HQ4EFgQUH2Eos6Yr/GCOnv/UpheMvno0wa4wTgYDVR0jBEcwRYAUHCOGuK94Xz+z
yosIATns5SBV8Y6hF6QVMBMxETAPBgNVBAMMCHNyeC1sYWI0ghRwJn9XpIYWA/yq
vJ2XaZfGzMAg2TATBgNVHSUEDDAKBggrBgEFBQcDAjALBgNVHQ8EBAMCB4AwDQYJ
KoZIhvcNAQELBQADggEBAIF47bt8EhtlPmj4SvjyONc3cWitBq20ZMYYwtyb7OYu
yS4KwNbDMYZ1/gCFPap/dCvBhr0XpvUaWQKSEkWAjY5dkmmyoT5hz7kRDjySeal5
6Q4o3MkLfhQQNE/C23nALMY6njPz7aNViEG7Pq9nuInGA4lQ0lXJxPvKvvjVDzu2
R27E1ZzTUtmONJRejAQGdBJOFJ8Y9LLt1Zwk9QTPraXA0444XTdl3qFCVaFQ054z
ZlVmEPrgFfv9f2/2Wm9MZOnYH+JY+7BWeA0aKUtmjtKhWbSu8wmYCFDSegNcOQfK
kyoA+Ed9QUhqx0nGH141Oxq4artieMS0X+B35p5/JfU=
-----END CERTIFICATE-----
